; Function Attrs: nounwind uwtable
define internal fastcc void @emitter_json_object_end(ptr nocapture noundef %emitter) unnamed_addr #0 {
entry:
  %emitter.val = load i32, ptr %emitter, align 8
  %spec.select.i = icmp ult i32 %emitter.val, 2
  br i1 %spec.select.i, label %do.end, label %if.end2

do.end:                                           ; preds = %entry
  %nesting_depth.i = getelementptr inbounds i8, ptr %emitter, i64 24
  %0 = load i32, ptr %nesting_depth.i, align 8
  %dec.i = add nsw i32 %0, -1
  store i32 %dec.i, ptr %nesting_depth.i, align 8
  %item_at_depth.i = getelementptr inbounds i8, ptr %emitter, i64 28
  store i8 1, ptr %item_at_depth.i, align 4
  %cmp.not = icmp eq i32 %emitter.val, 1
  br i1 %cmp.not, label %if.end, label %if.then1

if.then1:                                         ; preds = %do.end
  tail call void (ptr, ptr, ...) @emitter_printf(ptr noundef nonnull %emitter, ptr noundef nonnull @.str.33)
  %1 = load i32, ptr %nesting_depth.i, align 8
  %2 = load i32, ptr %emitter, align 8
  %cmp.i = icmp ne i32 %2, 0
  %indent_str.0.i = select i1 %cmp.i, ptr @.str.31, ptr @.str.34
  %cmp15.i = icmp sgt i32 %1, 0
  br i1 %cmp15.i, label %for.body.preheader.i, label %if.end

for.body.preheader.i:                             ; preds = %if.then1
  %mul.i = zext i1 %cmp.i to i32
  %amount.0.i = shl nuw nsw i32 %1, %mul.i
  %smax.i = tail call i32 @llvm.smax.i32(i32 %amount.0.i, i32 1)
  br label %for.body.i

for.body.i:                                       ; preds = %for.body.i, %for.body.preheader.i
  %i.06.i = phi i32 [ %inc.i, %for.body.i ], [ 0, %for.body.preheader.i ]
  tail call void (ptr, ptr, ...) @emitter_printf(ptr noundef nonnull %emitter, ptr noundef nonnull @.str.28, ptr noundef nonnull %indent_str.0.i)
  %inc.i = add nuw nsw i32 %i.06.i, 1
  %exitcond.not.i = icmp eq i32 %inc.i, %smax.i
  br i1 %exitcond.not.i, label %if.end, label %for.body.i, !llvm.loop !7

if.end:                                           ; preds = %for.body.i, %if.then1, %do.end
  tail call void (ptr, ptr, ...) @emitter_printf(ptr noundef nonnull %emitter, ptr noundef nonnull @.str.448)
  br label %if.end2

if.end2:                                          ; preds = %if.end, %entry
  ret void
}